target datalayout = "e-m:e-p270:32:32-p271:32:32-p272:64:64-i64:64-i128:128-f80:128-n8:16:32:64-S128"
target triple = "x86_64-unknown-linux-gnu"

%"class.net::TcpCubicSenderPackets" = type { %"class.net::TcpCubicSenderBase.base", %"class.net::Cubic", i64, i64, i64, i64, i64, i64, i64, i64 }
%"class.net::TcpCubicSenderBase.base" = type <{ %"class.net::SendAlgorithmInterface", %"class.net::HybridSlowStart", %"class.net::PrrSender", ptr, ptr, i8, [3 x i8], i32, i64, i64, i64, i8, i8, i8, i8, i8 }>
%"class.net::SendAlgorithmInterface" = type { ptr }
%"class.net::HybridSlowStart" = type { i8, i32, i64, i64, i32, %"class.net::QuicTime::Delta" }
%"class.net::QuicTime::Delta" = type { %"class.base::TimeDelta", i64 }
%"class.base::TimeDelta" = type { i64 }
%"class.net::PrrSender" = type { i64, i64, i64, i64 }
%"class.net::Cubic" = type { ptr, i32, %"class.net::QuicTime", %"class.net::QuicTime", %"class.net::QuicTime", i64, i64, i64, i64, i64, i32, i64 }
%"class.net::QuicTime" = type { i64 }

; Function Attrs: mustprogress uwtable
define dso_local void @_ZN3net21TcpCubicSenderPackets21OnConnectionMigrationEv(ptr noundef nonnull align 8 dereferenceable(304) %this) unnamed_addr #0 align 2 {
entry:
  %this.addr = alloca ptr, align 8
  store ptr %this, ptr %this.addr, align 8
  %this1 = load ptr, ptr %this.addr, align 8
  call void @_ZN3net18TcpCubicSenderBase21OnConnectionMigrationEv(ptr noundef nonnull align 8 dereferenceable(141) %this1)
  %cubic_ = getelementptr inbounds %"class.net::TcpCubicSenderPackets", ptr %this1, i32 0, i32 1
  call void @_ZN3net5Cubic5ResetEv(ptr noundef nonnull align 8 dereferenceable(96) %cubic_)
  %congestion_window_count_ = getelementptr inbounds %"class.net::TcpCubicSenderPackets", ptr %this1, i32 0, i32 2
  store i64 0, ptr %congestion_window_count_, align 8
  %initial_tcp_congestion_window_ = getelementptr inbounds %"class.net::TcpCubicSenderPackets", ptr %this1, i32 0, i32 7
  %0 = load i64, ptr %initial_tcp_congestion_window_, align 8
  %congestion_window_ = getelementptr inbounds %"class.net::TcpCubicSenderPackets", ptr %this1, i32 0, i32 3
  store i64 %0, ptr %congestion_window_, align 8
  %initial_max_tcp_congestion_window_ = getelementptr inbounds %"class.net::TcpCubicSenderPackets", ptr %this1, i32 0, i32 8
  %1 = load i64, ptr %initial_max_tcp_congestion_window_, align 8
  %slowstart_threshold_ = getelementptr inbounds %"class.net::TcpCubicSenderPackets", ptr %this1, i32 0, i32 5
  store i64 %1, ptr %slowstart_threshold_, align 8
  %initial_max_tcp_congestion_window_2 = getelementptr inbounds %"class.net::TcpCubicSenderPackets", ptr %this1, i32 0, i32 8
  %2 = load i64, ptr %initial_max_tcp_congestion_window_2, align 8
  %max_tcp_congestion_window_ = getelementptr inbounds %"class.net::TcpCubicSenderPackets", ptr %this1, i32 0, i32 6
  store i64 %2, ptr %max_tcp_congestion_window_, align 8
  ret void
}