; Function Attrs: mustprogress uwtable
define dso_local void @_ZN3net21TcpCubicSenderPackets21OnConnectionMigrationEv(ptr noundef nonnull align 8 dereferenceable(304) %this) unnamed_addr #0 align 2 {
entry:
  tail call void @_ZN3net18TcpCubicSenderBase21OnConnectionMigrationEv(ptr noundef nonnull align 8 dereferenceable(141) %this)
  %cubic_ = getelementptr inbounds i8, ptr %this, i64 144
  tail call void @_ZN3net5Cubic5ResetEv(ptr noundef nonnull align 8 dereferenceable(96) %cubic_)
  %congestion_window_count_ = getelementptr inbounds i8, ptr %this, i64 240
  store i64 0, ptr %congestion_window_count_, align 8
  %initial_tcp_congestion_window_ = getelementptr inbounds i8, ptr %this, i64 280
  %0 = load i64, ptr %initial_tcp_congestion_window_, align 8
  %congestion_window_ = getelementptr inbounds i8, ptr %this, i64 248
  store i64 %0, ptr %congestion_window_, align 8
  %initial_max_tcp_congestion_window_ = getelementptr inbounds i8, ptr %this, i64 288
  %1 = load i64, ptr %initial_max_tcp_congestion_window_, align 8
  %slowstart_threshold_ = getelementptr inbounds i8, ptr %this, i64 264
  store i64 %1, ptr %slowstart_threshold_, align 8
  %max_tcp_congestion_window_ = getelementptr inbounds i8, ptr %this, i64 272
  store i64 %1, ptr %max_tcp_congestion_window_, align 8
  ret void
}